target datalayout = "e-m:e-p270:32:32-p271:32:32-p272:64:64-i64:64-i128:128-f80:128-n8:16:32:64-S128"
target triple = "x86_64-pc-linux-gnu"

%class.bv_rewriter = type <{ %class.poly_rewriter.base, [4 x i8], %class.mk_extract_proc, %class.arith_util, i8, i8, i8, i8, i8, i8, i8, i8, i8, i8, i8, i8, i8, [3 x i8] }>
%class.poly_rewriter.base = type <{ %class.bv_rewriter_core, ptr, %class.obj_map, i8, i8, [2 x i8], i32, i8, i8, i8, i8 }>
%class.bv_rewriter_core = type { ptr, %class.bv_util, %class.obj_ref }
%class.bv_util = type { %class.bv_recognizers, ptr, ptr }
%class.bv_recognizers = type { i32 }
%class.obj_ref = type { ptr, ptr }
%class.obj_map = type { %class.core_hashtable }
%class.core_hashtable = type <{ ptr, i32, i32, i32, [4 x i8] }>
%class.mk_extract_proc = type { ptr, i32, i32, ptr, ptr }
%class.arith_util = type { ptr, ptr }
%class.decl = type { %class.ast, %class.symbol, ptr }
%class.ast = type { i32, i32, i32, i32 }
%class.symbol = type { ptr }
%class.app = type { %class.expr, ptr, i32, %struct.app_flags, [0 x ptr] }
%class.expr = type { %class.ast }
%struct.app_flags = type <{ i16, i8, i8 }>
%class.decl_info = type <{ i32, i32, %class.vector.60, i8, [7 x i8] }>
%class.vector.60 = type { ptr }

; Function Attrs: mustprogress nounwind uwtable
define linkonce_odr hidden noundef zeroext i1 @_ZNK9decl_info10is_decl_ofEii(ptr noundef nonnull align 8 dereferenceable(17) %0, i32 noundef %1, i32 noundef %2) #6 comdat align 2 {
  %4 = alloca ptr, align 8
  %5 = alloca i32, align 4
  %6 = alloca i32, align 4
  store ptr %0, ptr %4, align 8, !tbaa !426
  store i32 %1, ptr %5, align 4, !tbaa !63
  store i32 %2, ptr %6, align 4, !tbaa !63
  %7 = load ptr, ptr %4, align 8
  %8 = getelementptr inbounds nuw %class.decl_info, ptr %7, i32 0, i32 0
  %9 = load i32, ptr %8, align 8, !tbaa !518
  %10 = load i32, ptr %5, align 4, !tbaa !63
  %11 = icmp eq i32 %9, %10
  br i1 %11, label %12, label %17

12:                                               ; preds = %3
  %13 = load i32, ptr %6, align 4, !tbaa !63
  %14 = getelementptr inbounds nuw %class.decl_info, ptr %7, i32 0, i32 1
  %15 = load i32, ptr %14, align 4, !tbaa !427
  %16 = icmp eq i32 %13, %15
  br label %17

17:                                               ; preds = %12, %3
  %18 = phi i1 [ false, %3 ], [ %16, %12 ]
  ret i1 %18
}

; Function Attrs: mustprogress uwtable
define linkonce_odr hidden noundef zeroext i1 @_ZNK4decl10is_decl_ofEii(ptr noundef nonnull align 8 dereferenceable(32) %0, i32 noundef %1, i32 noundef %2) #4 comdat align 2 {
  %4 = alloca ptr, align 8
  %5 = alloca i32, align 4
  %6 = alloca i32, align 4
  store ptr %0, ptr %4, align 8, !tbaa !72
  store i32 %1, ptr %5, align 4, !tbaa !63
  store i32 %2, ptr %6, align 4, !tbaa !63
  %7 = load ptr, ptr %4, align 8
  %8 = getelementptr inbounds nuw %class.decl, ptr %7, i32 0, i32 2
  %9 = load ptr, ptr %8, align 8, !tbaa !74
  %10 = icmp ne ptr %9, null
  br i1 %10, label %11, label %17

11:                                               ; preds = %3
  %12 = getelementptr inbounds nuw %class.decl, ptr %7, i32 0, i32 2
  %13 = load ptr, ptr %12, align 8, !tbaa !74
  %14 = load i32, ptr %5, align 4, !tbaa !63
  %15 = load i32, ptr %6, align 4, !tbaa !63
  %16 = call noundef zeroext i1 @_ZNK9decl_info10is_decl_ofEii(ptr noundef nonnull align 8 dereferenceable(17) %13, i32 noundef %14, i32 noundef %15)
  br label %17

17:                                               ; preds = %11, %3
  %18 = phi i1 [ false, %3 ], [ %16, %11 ]
  ret i1 %18
}

; Function Attrs: mustprogress uwtable
define linkonce_odr hidden noundef zeroext i1 @_ZNK3app9is_app_ofEii(ptr noundef nonnull align 8 dereferenceable(32) %0, i32 noundef %1, i32 noundef %2) #4 comdat align 2 {
  %4 = alloca ptr, align 8
  %5 = alloca i32, align 4
  %6 = alloca i32, align 4
  store ptr %0, ptr %4, align 8, !tbaa !90
  store i32 %1, ptr %5, align 4, !tbaa !63
  store i32 %2, ptr %6, align 4, !tbaa !63
  %7 = load ptr, ptr %4, align 8
  %8 = getelementptr inbounds nuw %class.app, ptr %7, i32 0, i32 1
  %9 = load ptr, ptr %8, align 8, !tbaa !228
  %10 = load i32, ptr %5, align 4, !tbaa !63
  %11 = load i32, ptr %6, align 4, !tbaa !63
  %12 = call noundef zeroext i1 @_ZNK4decl10is_decl_ofEii(ptr noundef nonnull align 8 dereferenceable(32) %9, i32 noundef %10, i32 noundef %11)
  ret i1 %12
}

; Function Attrs: inlinehint mustprogress nounwind uwtable
define linkonce_odr hidden noundef ptr @_Z6to_appPK3ast(ptr noundef %0) #7 comdat {
  %2 = alloca ptr, align 8
  store ptr %0, ptr %2, align 8, !tbaa !141
  %3 = load ptr, ptr %2, align 8, !tbaa !141
  ret ptr %3
}

; Function Attrs: mustprogress nounwind uwtable
define linkonce_odr hidden noundef i32 @_ZNK3ast8get_kindEv(ptr noundef nonnull align 4 dereferenceable(16) %0) #6 comdat align 2 {
  %2 = alloca ptr, align 8
  store ptr %0, ptr %2, align 8, !tbaa !141
  %3 = load ptr, ptr %2, align 8
  %4 = getelementptr inbounds nuw %class.ast, ptr %3, i32 0, i32 1
  %5 = load i32, ptr %4, align 4
  %6 = and i32 %5, 65535
  ret i32 %6
}

; Function Attrs: mustprogress uwtable
define linkonce_odr hidden noundef zeroext i1 @_ZNK14bv_recognizers8is_bv_orEPK4expr(ptr noundef nonnull align 4 dereferenceable(4) %0, ptr noundef %1) #4 comdat align 2 {
  %3 = alloca ptr, align 8
  %4 = alloca ptr, align 8
  store ptr %0, ptr %3, align 8, !tbaa !97
  store ptr %1, ptr %4, align 8, !tbaa !71
  %5 = load ptr, ptr %3, align 8
  %6 = load ptr, ptr %4, align 8, !tbaa !71
  %7 = call noundef i32 @_ZNK14bv_recognizers7get_fidEv(ptr noundef nonnull align 4 dereferenceable(4) %5)
  %8 = call noundef zeroext i1 @_Z9is_app_ofPK4exprii(ptr noundef %6, i32 noundef %7, i32 noundef 31)
  ret i1 %8
}

; Function Attrs: mustprogress uwtable
define linkonce_odr hidden noundef zeroext i1 @_ZNK14bv_recognizers10is_numeralEPK4expr(ptr noundef nonnull align 4 dereferenceable(4) %0, ptr noundef %1) #4 comdat align 2 {
  %3 = alloca ptr, align 8
  %4 = alloca ptr, align 8
  store ptr %0, ptr %3, align 8, !tbaa !97
  store ptr %1, ptr %4, align 8, !tbaa !71
  %5 = load ptr, ptr %3, align 8
  %6 = load ptr, ptr %4, align 8, !tbaa !71
  %7 = call noundef i32 @_ZNK14bv_recognizers7get_fidEv(ptr noundef nonnull align 4 dereferenceable(4) %5)
  %8 = call noundef zeroext i1 @_Z9is_app_ofPK4exprii(ptr noundef %6, i32 noundef %7, i32 noundef 0)
  ret i1 %8
}

; Function Attrs: inlinehint mustprogress uwtable
define linkonce_odr hidden noundef zeroext i1 @_Z9is_app_ofPK4exprii(ptr noundef %0, i32 noundef %1, i32 noundef %2) #8 comdat {
  %4 = alloca ptr, align 8
  %5 = alloca i32, align 4
  %6 = alloca i32, align 4
  store ptr %0, ptr %4, align 8, !tbaa !71
  store i32 %1, ptr %5, align 4, !tbaa !63
  store i32 %2, ptr %6, align 4, !tbaa !63
  %7 = load ptr, ptr %4, align 8, !tbaa !71
  %8 = call noundef i32 @_ZNK3ast8get_kindEv(ptr noundef nonnull align 4 dereferenceable(16) %7)
  %9 = icmp eq i32 %8, 0
  br i1 %9, label %10, label %16

10:                                               ; preds = %3
  %11 = load ptr, ptr %4, align 8, !tbaa !71
  %12 = call noundef ptr @_Z6to_appPK3ast(ptr noundef %11)
  %13 = load i32, ptr %5, align 4, !tbaa !63
  %14 = load i32, ptr %6, align 4, !tbaa !63
  %15 = call noundef zeroext i1 @_ZNK3app9is_app_ofEii(ptr noundef nonnull align 8 dereferenceable(32) %12, i32 noundef %13, i32 noundef %14)
  br label %16

16:                                               ; preds = %10, %3
  %17 = phi i1 [ false, %3 ], [ %15, %10 ]
  ret i1 %17
}

; Function Attrs: mustprogress nounwind uwtable
define linkonce_odr hidden noundef i32 @_ZNK14bv_recognizers7get_fidEv(ptr noundef nonnull align 4 dereferenceable(4) %0) #6 comdat align 2 {
  %2 = alloca ptr, align 8
  store ptr %0, ptr %2, align 8, !tbaa !97
  %3 = load ptr, ptr %2, align 8
  %4 = getelementptr inbounds nuw %class.bv_recognizers, ptr %3, i32 0, i32 0
  %5 = load i32, ptr %4, align 4, !tbaa !147
  ret i32 %5
}

; Function Attrs: mustprogress uwtable
define hidden noundef zeroext i1 @_ZNK11bv_rewriter22is_concat_split_targetEP4expr(ptr noundef nonnull align 8 dereferenceable(157) %0, ptr noundef %1) #4 align 2 {
  %3 = alloca ptr, align 8
  %4 = alloca ptr, align 8
  store ptr %0, ptr %3, align 8, !tbaa !3
  store ptr %1, ptr %4, align 8, !tbaa !71
  %5 = load ptr, ptr %3, align 8
  %6 = getelementptr inbounds nuw %class.bv_rewriter, ptr %5, i32 0, i32 10
  %7 = load i8, ptr %6, align 2, !tbaa !35, !range !51, !noundef !52
  %8 = trunc i8 %7 to i1
  br i1 %8, label %21, label %9

9:                                                ; preds = %2
  %10 = getelementptr inbounds nuw %class.bv_rewriter_core, ptr %5, i32 0, i32 1
  %11 = load ptr, ptr %4, align 8, !tbaa !71
  %12 = call noundef zeroext i1 @_ZNK14bv_recognizers9is_concatEPK4expr(ptr noundef nonnull align 4 dereferenceable(4) %10, ptr noundef %11)
  br i1 %12, label %21, label %13

13:                                               ; preds = %9
  %14 = getelementptr inbounds nuw %class.bv_rewriter_core, ptr %5, i32 0, i32 1
  %15 = load ptr, ptr %4, align 8, !tbaa !71
  %16 = call noundef zeroext i1 @_ZNK14bv_recognizers10is_numeralEPK4expr(ptr noundef nonnull align 4 dereferenceable(4) %14, ptr noundef %15)
  br i1 %16, label %21, label %17

17:                                               ; preds = %13
  %18 = getelementptr inbounds nuw %class.bv_rewriter_core, ptr %5, i32 0, i32 1
  %19 = load ptr, ptr %4, align 8, !tbaa !71
  %20 = call noundef zeroext i1 @_ZNK14bv_recognizers8is_bv_orEPK4expr(ptr noundef nonnull align 4 dereferenceable(4) %18, ptr noundef %19)
  br label %21

21:                                               ; preds = %17, %13, %9, %2
  %22 = phi i1 [ true, %13 ], [ true, %9 ], [ true, %2 ], [ %20, %17 ]
  ret i1 %22
}

; Function Attrs: mustprogress uwtable
define linkonce_odr hidden noundef zeroext i1 @_ZNK14bv_recognizers9is_concatEPK4expr(ptr noundef nonnull align 4 dereferenceable(4) %0, ptr noundef %1) #4 comdat align 2 {
  %3 = alloca ptr, align 8
  %4 = alloca ptr, align 8
  store ptr %0, ptr %3, align 8, !tbaa !97
  store ptr %1, ptr %4, align 8, !tbaa !71
  %5 = load ptr, ptr %3, align 8
  %6 = load ptr, ptr %4, align 8, !tbaa !71
  %7 = call noundef i32 @_ZNK14bv_recognizers7get_fidEv(ptr noundef nonnull align 4 dereferenceable(4) %5)
  %8 = call noundef zeroext i1 @_Z9is_app_ofPK4exprii(ptr noundef %6, i32 noundef %7, i32 noundef 37)
  ret i1 %8
}

; Function Attrs: mustprogress uwtable
define hidden noundef zeroext i1 @_ZNK11bv_rewriter16is_concat_targetEP4exprS1_(ptr noundef nonnull align 8 dereferenceable(157) %0, ptr noundef %1, ptr noundef %2) #4 align 2 {
  %4 = alloca ptr, align 8
  %5 = alloca ptr, align 8
  %6 = alloca ptr, align 8
  store ptr %0, ptr %4, align 8, !tbaa !3
  store ptr %1, ptr %5, align 8, !tbaa !71
  store ptr %2, ptr %6, align 8, !tbaa !71
  %7 = load ptr, ptr %4, align 8
  %8 = getelementptr inbounds nuw %class.bv_rewriter_core, ptr %7, i32 0, i32 1
  %9 = load ptr, ptr %5, align 8, !tbaa !71
  %10 = call noundef zeroext i1 @_ZNK14bv_recognizers9is_concatEPK4expr(ptr noundef nonnull align 4 dereferenceable(4) %8, ptr noundef %9)
  br i1 %10, label %11, label %14

11:                                               ; preds = %3
  %12 = load ptr, ptr %6, align 8, !tbaa !71
  %13 = call noundef zeroext i1 @_ZNK11bv_rewriter22is_concat_split_targetEP4expr(ptr noundef nonnull align 8 dereferenceable(157) %7, ptr noundef %12)
  br i1 %13, label %23, label %14

14:                                               ; preds = %11, %3
  %15 = getelementptr inbounds nuw %class.bv_rewriter_core, ptr %7, i32 0, i32 1
  %16 = load ptr, ptr %6, align 8, !tbaa !71
  %17 = call noundef zeroext i1 @_ZNK14bv_recognizers9is_concatEPK4expr(ptr noundef nonnull align 4 dereferenceable(4) %15, ptr noundef %16)
  br i1 %17, label %18, label %21

18:                                               ; preds = %14
  %19 = load ptr, ptr %5, align 8, !tbaa !71
  %20 = call noundef zeroext i1 @_ZNK11bv_rewriter22is_concat_split_targetEP4expr(ptr noundef nonnull align 8 dereferenceable(157) %7, ptr noundef %19)
  br label %21

21:                                               ; preds = %18, %14
  %22 = phi i1 [ false, %14 ], [ %20, %18 ]
  br label %23

23:                                               ; preds = %21, %11
  %24 = phi i1 [ true, %11 ], [ %22, %21 ]
  ret i1 %24
}