; Function Attrs: mustprogress nofree norecurse nosync nounwind willreturn memory(read, inaccessiblemem: none) uwtable
define hidden noundef zeroext i1 @_ZNK11bv_rewriter16is_concat_targetEP4exprS1_(ptr noundef nonnull readonly align 8 captures(none) dereferenceable(157) %0, ptr noundef readonly captures(none) %1, ptr noundef readonly captures(none) %2) local_unnamed_addr #9 align 2 {
  %4 = getelementptr inbounds nuw i8, ptr %0, i64 8
  %5 = load i32, ptr %4, align 8, !tbaa !75
  %6 = getelementptr inbounds nuw i8, ptr %1, i64 4
  %7 = load i32, ptr %6, align 4
  %8 = and i32 %7, 65535
  %9 = icmp ne i32 %8, 0
  br i1 %9, label %_ZNK14bv_recognizers9is_concatEPK4expr.exit.thread, label %10

10:                                               ; preds = %3
  %11 = getelementptr inbounds nuw i8, ptr %1, i64 16
  %12 = load ptr, ptr %11, align 8, !tbaa !78
  %13 = getelementptr inbounds nuw i8, ptr %12, i64 24
  %14 = load ptr, ptr %13, align 8, !tbaa !57
  %.not.i.i.i.i = icmp eq ptr %14, null
  br i1 %.not.i.i.i.i, label %_ZNK14bv_recognizers9is_concatEPK4expr.exit.thread, label %_ZNK14bv_recognizers9is_concatEPK4expr.exit

_ZNK14bv_recognizers9is_concatEPK4expr.exit:      ; preds = %10
  %15 = load i32, ptr %14, align 8, !tbaa !82
  %16 = icmp eq i32 %15, %5
  %17 = getelementptr inbounds nuw i8, ptr %14, i64 4
  %18 = load i32, ptr %17, align 4
  %19 = icmp eq i32 %18, 37
  %20 = select i1 %16, i1 %19, i1 false
  br i1 %20, label %21, label %_ZNK14bv_recognizers9is_concatEPK4expr.exit.thread

21:                                               ; preds = %_ZNK14bv_recognizers9is_concatEPK4expr.exit
  %22 = getelementptr inbounds nuw i8, ptr %0, i64 150
  %23 = load i8, ptr %22, align 2, !tbaa !37, !range !52, !noundef !53
  %24 = trunc nuw i8 %23 to i1
  br i1 %24, label %_ZNK11bv_rewriter22is_concat_split_targetEP4expr.exit11, label %25

25:                                               ; preds = %21
  %26 = getelementptr inbounds nuw i8, ptr %2, i64 4
  %27 = load i32, ptr %26, align 4
  %28 = and i32 %27, 65535
  %29 = icmp eq i32 %28, 0
  br i1 %29, label %30, label %_ZNK14bv_recognizers9is_concatEPK4expr.exit.thread

30:                                               ; preds = %25
  %31 = getelementptr inbounds nuw i8, ptr %2, i64 16
  %32 = load ptr, ptr %31, align 8, !tbaa !78
  %33 = getelementptr inbounds nuw i8, ptr %32, i64 24
  %34 = load ptr, ptr %33, align 8, !tbaa !57
  %.not.i.i.i.i.i = icmp eq ptr %34, null
  br i1 %.not.i.i.i.i.i, label %_ZNK14bv_recognizers9is_concatEPK4expr.exit.thread, label %_ZNK14bv_recognizers9is_concatEPK4expr.exit.i

_ZNK14bv_recognizers9is_concatEPK4expr.exit.i:    ; preds = %30
  %35 = load i32, ptr %34, align 8, !tbaa !82
  %36 = icmp eq i32 %35, %5
  %37 = getelementptr inbounds nuw i8, ptr %34, i64 4
  %38 = load i32, ptr %37, align 4
  %39 = icmp eq i32 %38, 37
  %40 = icmp eq i32 %38, 0
  %41 = or i1 %39, %40
  %42 = icmp eq i32 %38, 31
  %43 = or i1 %42, %41
  %or.cond16 = select i1 %36, i1 %43, i1 false
  br i1 %or.cond16, label %_ZNK11bv_rewriter22is_concat_split_targetEP4expr.exit11, label %_ZNK14bv_recognizers9is_concatEPK4expr.exit.thread

_ZNK14bv_recognizers9is_concatEPK4expr.exit.thread: ; preds = %_ZNK14bv_recognizers9is_concatEPK4expr.exit.i, %30, %25, %10, %3, %_ZNK14bv_recognizers9is_concatEPK4expr.exit
  %44 = getelementptr inbounds nuw i8, ptr %2, i64 4
  %45 = load i32, ptr %44, align 4
  %46 = and i32 %45, 65535
  %47 = icmp eq i32 %46, 0
  br i1 %47, label %48, label %_ZNK11bv_rewriter22is_concat_split_targetEP4expr.exit11

48:                                               ; preds = %_ZNK14bv_recognizers9is_concatEPK4expr.exit.thread
  %49 = getelementptr inbounds nuw i8, ptr %2, i64 16
  %50 = load ptr, ptr %49, align 8, !tbaa !78
  %51 = getelementptr inbounds nuw i8, ptr %50, i64 24
  %52 = load ptr, ptr %51, align 8, !tbaa !57
  %.not.i.i.i.i5 = icmp eq ptr %52, null
  br i1 %.not.i.i.i.i5, label %_ZNK11bv_rewriter22is_concat_split_targetEP4expr.exit11, label %_ZNK14bv_recognizers9is_concatEPK4expr.exit6

_ZNK14bv_recognizers9is_concatEPK4expr.exit6:     ; preds = %48
  %53 = load i32, ptr %52, align 8, !tbaa !82
  %54 = icmp eq i32 %53, %5
  %55 = getelementptr inbounds nuw i8, ptr %52, i64 4
  %56 = load i32, ptr %55, align 4
  %57 = icmp eq i32 %56, 37
  %58 = select i1 %54, i1 %57, i1 false
  br i1 %58, label %59, label %_ZNK11bv_rewriter22is_concat_split_targetEP4expr.exit11

59:                                               ; preds = %_ZNK14bv_recognizers9is_concatEPK4expr.exit6
  %60 = getelementptr inbounds nuw i8, ptr %0, i64 150
  %61 = load i8, ptr %60, align 2, !tbaa !37, !range !52, !noundef !53
  %62 = trunc nuw i8 %61 to i1
  %brmerge = or i1 %9, %62
  br i1 %brmerge, label %_ZNK11bv_rewriter22is_concat_split_targetEP4expr.exit11, label %63

63:                                               ; preds = %59
  %64 = getelementptr inbounds nuw i8, ptr %1, i64 16
  %65 = load ptr, ptr %64, align 8, !tbaa !78
  %66 = getelementptr inbounds nuw i8, ptr %65, i64 24
  %67 = load ptr, ptr %66, align 8, !tbaa !57
  %.not.i.i.i.i.i7 = icmp eq ptr %67, null
  br i1 %.not.i.i.i.i.i7, label %_ZNK11bv_rewriter22is_concat_split_targetEP4expr.exit11, label %_ZNK14bv_recognizers9is_concatEPK4expr.exit.i8

_ZNK14bv_recognizers9is_concatEPK4expr.exit.i8:   ; preds = %63
  %68 = load i32, ptr %67, align 8, !tbaa !82
  %69 = icmp eq i32 %68, %5
  %70 = getelementptr inbounds nuw i8, ptr %67, i64 4
  %71 = load i32, ptr %70, align 4
  %72 = icmp eq i32 %71, 37
  %73 = icmp eq i32 %71, 0
  %74 = or i1 %72, %73
  %or.cond18 = select i1 %69, i1 %74, i1 false
  br i1 %or.cond18, label %_ZNK11bv_rewriter22is_concat_split_targetEP4expr.exit11, label %.thread8.i10

.thread8.i10:                                     ; preds = %_ZNK14bv_recognizers9is_concatEPK4expr.exit.i8
  %75 = icmp eq i32 %71, 31
  %76 = select i1 %69, i1 %75, i1 false
  br label %_ZNK11bv_rewriter22is_concat_split_targetEP4expr.exit11

_ZNK11bv_rewriter22is_concat_split_targetEP4expr.exit11: ; preds = %59, %48, %_ZNK14bv_recognizers9is_concatEPK4expr.exit.thread, %21, %_ZNK14bv_recognizers9is_concatEPK4expr.exit.i, %.thread8.i10, %_ZNK14bv_recognizers9is_concatEPK4expr.exit.i8, %63, %_ZNK14bv_recognizers9is_concatEPK4expr.exit6
  %77 = phi i1 [ false, %_ZNK14bv_recognizers9is_concatEPK4expr.exit6 ], [ true, %_ZNK14bv_recognizers9is_concatEPK4expr.exit.i8 ], [ %62, %59 ], [ %76, %.thread8.i10 ], [ false, %63 ], [ true, %_ZNK14bv_recognizers9is_concatEPK4expr.exit.i ], [ true, %21 ], [ false, %_ZNK14bv_recognizers9is_concatEPK4expr.exit.thread ], [ false, %48 ]
  ret i1 %77
}